; Function Attrs: mustprogress uwtable
define dso_local void @_ZN7Cleaner15RemoveEdgeFilesEP4Edge(ptr noundef nonnull align 8 dereferenceable(156) %0, ptr noundef nonnull %1) local_unnamed_addr #1 align 2 personality ptr @__gxx_personality_v0 {
  %3 = alloca %"class.std::__cxx11::basic_string", align 8
  %4 = alloca %"class.std::__cxx11::basic_string", align 8
  call void @llvm.lifetime.start.p0(i64 32, ptr nonnull %3) #22
  call void @_ZNK4Edge19GetUnescapedDepfileB5cxx11Ev(ptr dead_on_unwind nonnull writable sret(%"class.std::__cxx11::basic_string") align 8 %3, ptr noundef nonnull align 8 dereferenceable(168) %1)
  %5 = getelementptr inbounds nuw i8, ptr %3, i64 8
  %6 = load i64, ptr %5, align 8, !tbaa !48
  %7 = icmp eq i64 %6, 0
  br i1 %7, label %11, label %8

8:                                                ; preds = %2
  invoke void @_ZN7Cleaner6RemoveERKNSt7__cxx1112basic_stringIcSt11char_traitsIcESaIcEEE(ptr noundef nonnull align 8 dereferenceable(156) %0, ptr noundef nonnull align 8 dereferenceable(32) %3)
          to label %11 unwind label %9

9:                                                ; preds = %8
  %10 = landingpad { ptr, i32 }
          cleanup
  br label %43

11:                                               ; preds = %8, %2
  call void @llvm.lifetime.start.p0(i64 32, ptr nonnull %4) #22
  invoke void @_ZNK4Edge19GetUnescapedRspfileB5cxx11Ev(ptr dead_on_unwind nonnull writable sret(%"class.std::__cxx11::basic_string") align 8 %4, ptr noundef nonnull align 8 dereferenceable(168) %1)
          to label %12 unwind label %17

12:                                               ; preds = %11
  %13 = getelementptr inbounds nuw i8, ptr %4, i64 8
  %14 = load i64, ptr %13, align 8, !tbaa !48
  %15 = icmp eq i64 %14, 0
  br i1 %15, label %28, label %16

16:                                               ; preds = %12
  invoke void @_ZN7Cleaner6RemoveERKNSt7__cxx1112basic_stringIcSt11char_traitsIcESaIcEEE(ptr noundef nonnull align 8 dereferenceable(156) %0, ptr noundef nonnull align 8 dereferenceable(32) %4)
          to label %28 unwind label %19

17:                                               ; preds = %11
  %18 = landingpad { ptr, i32 }
          cleanup
  br label %_ZNSt7__cxx1112basic_stringIcSt11char_traitsIcESaIcEED2Ev.exit

19:                                               ; preds = %16
  %20 = landingpad { ptr, i32 }
          cleanup
  %21 = load ptr, ptr %4, align 8, !tbaa !51
  %22 = getelementptr inbounds nuw i8, ptr %4, i64 16
  %23 = icmp eq ptr %21, %22
  br i1 %23, label %_ZNKSt7__cxx1112basic_stringIcSt11char_traitsIcESaIcEE11_M_is_localEv.exit.thread.i.i, label %_ZNKSt7__cxx1112basic_stringIcSt11char_traitsIcESaIcEE11_M_is_localEv.exit.i.i

_ZNKSt7__cxx1112basic_stringIcSt11char_traitsIcESaIcEE11_M_is_localEv.exit.thread.i.i: ; preds = %19
  %24 = load i64, ptr %13, align 8, !tbaa !48
  %25 = icmp ult i64 %24, 16
  call void @llvm.assume(i1 %25)
  br label %_ZNSt7__cxx1112basic_stringIcSt11char_traitsIcESaIcEED2Ev.exit

_ZNKSt7__cxx1112basic_stringIcSt11char_traitsIcESaIcEE11_M_is_localEv.exit.i.i: ; preds = %19
  %26 = load i64, ptr %22, align 8, !tbaa !50
  %27 = add i64 %26, 1
  call void @_ZdlPvm(ptr noundef %21, i64 noundef %27) #23
  br label %_ZNSt7__cxx1112basic_stringIcSt11char_traitsIcESaIcEED2Ev.exit

28:                                               ; preds = %16, %12
  %29 = load ptr, ptr %4, align 8, !tbaa !51
  %30 = getelementptr inbounds nuw i8, ptr %4, i64 16
  %31 = icmp eq ptr %29, %30
  br i1 %31, label %_ZNKSt7__cxx1112basic_stringIcSt11char_traitsIcESaIcEE11_M_is_localEv.exit.thread.i.i9, label %_ZNKSt7__cxx1112basic_stringIcSt11char_traitsIcESaIcEE11_M_is_localEv.exit.i.i8

_ZNKSt7__cxx1112basic_stringIcSt11char_traitsIcESaIcEE11_M_is_localEv.exit.thread.i.i9: ; preds = %28
  %32 = load i64, ptr %13, align 8, !tbaa !48
  %33 = icmp ult i64 %32, 16
  call void @llvm.assume(i1 %33)
  br label %_ZNSt7__cxx1112basic_stringIcSt11char_traitsIcESaIcEED2Ev.exit10

_ZNKSt7__cxx1112basic_stringIcSt11char_traitsIcESaIcEE11_M_is_localEv.exit.i.i8: ; preds = %28
  %34 = load i64, ptr %30, align 8, !tbaa !50
  %35 = add i64 %34, 1
  call void @_ZdlPvm(ptr noundef %29, i64 noundef %35) #23
  br label %_ZNSt7__cxx1112basic_stringIcSt11char_traitsIcESaIcEED2Ev.exit10

_ZNSt7__cxx1112basic_stringIcSt11char_traitsIcESaIcEED2Ev.exit10: ; preds = %_ZNKSt7__cxx1112basic_stringIcSt11char_traitsIcESaIcEE11_M_is_localEv.exit.thread.i.i9, %_ZNKSt7__cxx1112basic_stringIcSt11char_traitsIcESaIcEE11_M_is_localEv.exit.i.i8
  call void @llvm.lifetime.end.p0(i64 32, ptr nonnull %4) #22
  %36 = load ptr, ptr %3, align 8, !tbaa !51
  %37 = getelementptr inbounds nuw i8, ptr %3, i64 16
  %38 = icmp eq ptr %36, %37
  br i1 %38, label %_ZNKSt7__cxx1112basic_stringIcSt11char_traitsIcESaIcEE11_M_is_localEv.exit.thread.i.i12, label %_ZNKSt7__cxx1112basic_stringIcSt11char_traitsIcESaIcEE11_M_is_localEv.exit.i.i11

_ZNKSt7__cxx1112basic_stringIcSt11char_traitsIcESaIcEE11_M_is_localEv.exit.thread.i.i12: ; preds = %_ZNSt7__cxx1112basic_stringIcSt11char_traitsIcESaIcEED2Ev.exit10
  %39 = load i64, ptr %5, align 8, !tbaa !48
  %40 = icmp ult i64 %39, 16
  call void @llvm.assume(i1 %40)
  br label %_ZNSt7__cxx1112basic_stringIcSt11char_traitsIcESaIcEED2Ev.exit13

_ZNKSt7__cxx1112basic_stringIcSt11char_traitsIcESaIcEE11_M_is_localEv.exit.i.i11: ; preds = %_ZNSt7__cxx1112basic_stringIcSt11char_traitsIcESaIcEED2Ev.exit10
  %41 = load i64, ptr %37, align 8, !tbaa !50
  %42 = add i64 %41, 1
  call void @_ZdlPvm(ptr noundef %36, i64 noundef %42) #23
  br label %_ZNSt7__cxx1112basic_stringIcSt11char_traitsIcESaIcEED2Ev.exit13

_ZNSt7__cxx1112basic_stringIcSt11char_traitsIcESaIcEED2Ev.exit13: ; preds = %_ZNKSt7__cxx1112basic_stringIcSt11char_traitsIcESaIcEE11_M_is_localEv.exit.thread.i.i12, %_ZNKSt7__cxx1112basic_stringIcSt11char_traitsIcESaIcEE11_M_is_localEv.exit.i.i11
  call void @llvm.lifetime.end.p0(i64 32, ptr nonnull %3) #22
  ret void

_ZNSt7__cxx1112basic_stringIcSt11char_traitsIcESaIcEED2Ev.exit: ; preds = %_ZNKSt7__cxx1112basic_stringIcSt11char_traitsIcESaIcEE11_M_is_localEv.exit.i.i, %_ZNKSt7__cxx1112basic_stringIcSt11char_traitsIcESaIcEE11_M_is_localEv.exit.thread.i.i, %17
  %.pn = phi { ptr, i32 } [ %18, %17 ], [ %20, %_ZNKSt7__cxx1112basic_stringIcSt11char_traitsIcESaIcEE11_M_is_localEv.exit.thread.i.i ], [ %20, %_ZNKSt7__cxx1112basic_stringIcSt11char_traitsIcESaIcEE11_M_is_localEv.exit.i.i ]
  call void @llvm.lifetime.end.p0(i64 32, ptr nonnull %4) #22
  br label %43

43:                                               ; preds = %_ZNSt7__cxx1112basic_stringIcSt11char_traitsIcESaIcEED2Ev.exit, %9
  %.pn.pn = phi { ptr, i32 } [ %.pn, %_ZNSt7__cxx1112basic_stringIcSt11char_traitsIcESaIcEED2Ev.exit ], [ %10, %9 ]
  %44 = load ptr, ptr %3, align 8, !tbaa !51
  %45 = getelementptr inbounds nuw i8, ptr %3, i64 16
  %46 = icmp eq ptr %44, %45
  br i1 %46, label %_ZNKSt7__cxx1112basic_stringIcSt11char_traitsIcESaIcEE11_M_is_localEv.exit.thread.i.i15, label %_ZNKSt7__cxx1112basic_stringIcSt11char_traitsIcESaIcEE11_M_is_localEv.exit.i.i14

_ZNKSt7__cxx1112basic_stringIcSt11char_traitsIcESaIcEE11_M_is_localEv.exit.thread.i.i15: ; preds = %43
  %47 = load i64, ptr %5, align 8, !tbaa !48
  %48 = icmp ult i64 %47, 16
  call void @llvm.assume(i1 %48)
  br label %_ZNSt7__cxx1112basic_stringIcSt11char_traitsIcESaIcEED2Ev.exit16

_ZNKSt7__cxx1112basic_stringIcSt11char_traitsIcESaIcEE11_M_is_localEv.exit.i.i14: ; preds = %43
  %49 = load i64, ptr %45, align 8, !tbaa !50
  %50 = add i64 %49, 1
  call void @_ZdlPvm(ptr noundef %44, i64 noundef %50) #23
  br label %_ZNSt7__cxx1112basic_stringIcSt11char_traitsIcESaIcEED2Ev.exit16

_ZNSt7__cxx1112basic_stringIcSt11char_traitsIcESaIcEED2Ev.exit16: ; preds = %_ZNKSt7__cxx1112basic_stringIcSt11char_traitsIcESaIcEE11_M_is_localEv.exit.thread.i.i15, %_ZNKSt7__cxx1112basic_stringIcSt11char_traitsIcESaIcEE11_M_is_localEv.exit.i.i14
  call void @llvm.lifetime.end.p0(i64 32, ptr nonnull %3) #22
  resume { ptr, i32 } %.pn.pn
}